; Function Attrs: nounwind uwtable
define internal fastcc zeroext i1 @tailmatch(ptr noundef %0) unnamed_addr #0 {
  %2 = tail call i64 @strlen(ptr noundef nonnull dereferenceable(1) %0) #13
  %3 = icmp ult i64 %2, 10
  br i1 %3, label %9, label %4

4:                                                ; preds = %1
  %5 = getelementptr i8, ptr %0, i64 %2
  %6 = getelementptr i8, ptr %5, i64 -10
  %7 = tail call i32 @curl_strnequal(ptr noundef nonnull @.str.5, ptr noundef %6, i64 noundef 10) #12
  %8 = icmp ne i32 %7, 0
  br label %9

9:                                                ; preds = %1, %4
  %.0 = phi i1 [ %8, %4 ], [ false, %1 ]
  ret i1 %.0
}